target datalayout = "e-m:e-p270:32:32-p271:32:32-p272:64:64-i64:64-i128:128-f80:128-n8:16:32:64-S128"
target triple = "x86_64-pc-linux-gnu"

%struct.AVCodecTag = type { i32, i32 }
%struct.AVFormatContext = type { ptr, ptr, ptr, ptr, ptr, i32, i32, ptr, i32, ptr, i32, ptr, ptr, i64, i64, i64, i32, i32, i32, i64, i64, ptr, i32, i32, ptr, i32, i32, i32, i32, ptr, i64, i32, i32, %struct.AVIOInterruptCB, i32, i32, i32, i32, i64, i32, i32, i32, i32, i32, i32, i32, i32, i32, i32, i32, i32, i64, i32, i32, i32, i32, i32, ptr, ptr, ptr, ptr, i32, ptr, ptr, ptr, ptr, i32, ptr, ptr, i64, ptr, ptr, ptr, i64 }
%struct.AVIOInterruptCB = type { ptr, ptr }
%struct.AVStream = type { ptr, i32, i32, ptr, ptr, %struct.AVRational, i64, i64, i64, i32, i32, %struct.AVRational, ptr, %struct.AVRational, %struct.AVPacket, i32, %struct.AVRational, i32 }
%struct.AVPacket = type { ptr, i64, i64, ptr, i32, i32, i32, ptr, i32, i64, i64, ptr, ptr, %struct.AVRational }
%struct.AVRational = type { i32, i32 }
%struct.AVCodecParameters = type { i32, i32, i32, ptr, i32, ptr, i32, i32, i64, i32, i32, i32, i32, i32, i32, %struct.AVRational, %struct.AVRational, i32, i32, i32, i32, i32, i32, i32, %struct.AVChannelLayout, i32, i32, i32, i32, i32, i32 }
%struct.AVChannelLayout = type { i32, i32, %union.anon.0, ptr }
%union.anon.0 = type { i64 }
%struct.ASTMuxContext = type { ptr, i64, i64, i64, i64, i32 }

@.str.9 = private unnamed_addr constant [37 x i8] c"muxing ADPCM AFC is not implemented\0A\00", align 1
@ff_codec_ast_tags = external constant [0 x %struct.AVCodecTag], align 4
@.str.10 = private unnamed_addr constant [19 x i8] c"unsupported codec\0A\00", align 1
@.str.11 = private unnamed_addr constant [45 x i8] c"loopend can't be less or equal to loopstart\0A\00", align 1
@.str.12 = private unnamed_addr constant [25 x i8] c"Invalid loopstart value\0A\00", align 1
@.str.13 = private unnamed_addr constant [23 x i8] c"Invalid loopend value\0A\00", align 1
@.str.14 = private unnamed_addr constant [5 x i8] c"STRM\00", align 1

; Function Attrs: alwaysinline nounwind uwtable
define internal i64 @avio_tell(ptr noundef %0) #4 {
  %2 = alloca ptr, align 8
  store ptr %0, ptr %2, align 8, !tbaa !29
  %3 = load ptr, ptr %2, align 8, !tbaa !29
  %4 = call i64 @avio_seek(ptr noundef %3, i64 noundef 0, i32 noundef 1)
  ret i64 %4
}

; Function Attrs: alwaysinline nounwind uwtable
define internal void @ffio_wfourcc(ptr noundef %0, ptr noundef %1) #4 {
  %3 = alloca ptr, align 8
  %4 = alloca ptr, align 8
  store ptr %0, ptr %3, align 8, !tbaa !29
  store ptr %1, ptr %4, align 8, !tbaa !62
  %5 = load ptr, ptr %3, align 8, !tbaa !29
  %6 = load ptr, ptr %4, align 8, !tbaa !62
  %7 = getelementptr inbounds i8, ptr %6, i64 0
  %8 = load i8, ptr %7, align 1, !tbaa !63
  %9 = zext i8 %8 to i32
  %10 = load ptr, ptr %4, align 8, !tbaa !62
  %11 = getelementptr inbounds i8, ptr %10, i64 1
  %12 = load i8, ptr %11, align 1, !tbaa !63
  %13 = zext i8 %12 to i32
  %14 = shl i32 %13, 8
  %15 = or i32 %9, %14
  %16 = load ptr, ptr %4, align 8, !tbaa !62
  %17 = getelementptr inbounds i8, ptr %16, i64 2
  %18 = load i8, ptr %17, align 1, !tbaa !63
  %19 = zext i8 %18 to i32
  %20 = shl i32 %19, 16
  %21 = or i32 %15, %20
  %22 = load ptr, ptr %4, align 8, !tbaa !62
  %23 = getelementptr inbounds i8, ptr %22, i64 3
  %24 = load i8, ptr %23, align 1, !tbaa !63
  %25 = zext i8 %24 to i32
  %26 = shl i32 %25, 24
  %27 = or i32 %21, %26
  call void @avio_wl32(ptr noundef %5, i32 noundef %27)
  ret void
}

; Function Attrs: nounwind uwtable
define internal i32 @ast_write_header(ptr noundef %0) #0 {
  %2 = alloca i32, align 4
  %3 = alloca ptr, align 8
  %4 = alloca ptr, align 8
  %5 = alloca ptr, align 8
  %6 = alloca ptr, align 8
  %7 = alloca i32, align 4
  %8 = alloca i32, align 4
  store ptr %0, ptr %3, align 8, !tbaa !4
  call void @llvm.lifetime.start.p0(i64 8, ptr %4) #5
  %9 = load ptr, ptr %3, align 8, !tbaa !4
  %10 = getelementptr inbounds nuw %struct.AVFormatContext, ptr %9, i32 0, i32 3
  %11 = load ptr, ptr %10, align 8, !tbaa !9
  store ptr %11, ptr %4, align 8, !tbaa !26
  call void @llvm.lifetime.start.p0(i64 8, ptr %5) #5
  %12 = load ptr, ptr %3, align 8, !tbaa !4
  %13 = getelementptr inbounds nuw %struct.AVFormatContext, ptr %12, i32 0, i32 4
  %14 = load ptr, ptr %13, align 8, !tbaa !28
  store ptr %14, ptr %5, align 8, !tbaa !29
  call void @llvm.lifetime.start.p0(i64 8, ptr %6) #5
  %15 = load ptr, ptr %3, align 8, !tbaa !4
  %16 = getelementptr inbounds nuw %struct.AVFormatContext, ptr %15, i32 0, i32 7
  %17 = load ptr, ptr %16, align 8, !tbaa !30
  %18 = getelementptr inbounds ptr, ptr %17, i64 0
  %19 = load ptr, ptr %18, align 8, !tbaa !31
  %20 = getelementptr inbounds nuw %struct.AVStream, ptr %19, i32 0, i32 3
  %21 = load ptr, ptr %20, align 8, !tbaa !33
  store ptr %21, ptr %6, align 8, !tbaa !40
  call void @llvm.lifetime.start.p0(i64 4, ptr %7) #5
  %22 = load ptr, ptr %6, align 8, !tbaa !40
  %23 = getelementptr inbounds nuw %struct.AVCodecParameters, ptr %22, i32 0, i32 1
  %24 = load i32, ptr %23, align 4, !tbaa !41
  %25 = icmp eq i32 %24, 69663
  br i1 %25, label %26, label %28

26:                                               ; preds = %1
  %27 = load ptr, ptr %3, align 8, !tbaa !4
  call void (ptr, i32, ptr, ...) @av_log(ptr noundef %27, i32 noundef 16, ptr noundef @.str.9)
  store i32 -1163346256, ptr %2, align 4
  store i32 1, ptr %8, align 4
  br label %141

28:                                               ; preds = %1
  %29 = load ptr, ptr %6, align 8, !tbaa !40
  %30 = getelementptr inbounds nuw %struct.AVCodecParameters, ptr %29, i32 0, i32 1
  %31 = load i32, ptr %30, align 4, !tbaa !41
  %32 = call i32 @ff_codec_get_tag(ptr noundef @ff_codec_ast_tags, i32 noundef %31)
  store i32 %32, ptr %7, align 4, !tbaa !44
  %33 = load i32, ptr %7, align 4, !tbaa !44
  %34 = icmp ne i32 %33, 0
  br i1 %34, label %37, label %35

35:                                               ; preds = %28
  %36 = load ptr, ptr %3, align 8, !tbaa !4
  call void (ptr, i32, ptr, ...) @av_log(ptr noundef %36, i32 noundef 16, ptr noundef @.str.10)
  store i32 -22, ptr %2, align 4
  store i32 1, ptr %8, align 4
  br label %141

37:                                               ; preds = %28
  %38 = load ptr, ptr %4, align 8, !tbaa !26
  %39 = getelementptr inbounds nuw %struct.ASTMuxContext, ptr %38, i32 0, i32 4
  %40 = load i64, ptr %39, align 8, !tbaa !45
  %41 = icmp sgt i64 %40, 0
  br i1 %41, label %42, label %52

42:                                               ; preds = %37
  %43 = load ptr, ptr %4, align 8, !tbaa !26
  %44 = getelementptr inbounds nuw %struct.ASTMuxContext, ptr %43, i32 0, i32 3
  %45 = load i64, ptr %44, align 8, !tbaa !47
  %46 = load ptr, ptr %4, align 8, !tbaa !26
  %47 = getelementptr inbounds nuw %struct.ASTMuxContext, ptr %46, i32 0, i32 4
  %48 = load i64, ptr %47, align 8, !tbaa !45
  %49 = icmp sge i64 %45, %48
  br i1 %49, label %50, label %52

50:                                               ; preds = %42
  %51 = load ptr, ptr %3, align 8, !tbaa !4
  call void (ptr, i32, ptr, ...) @av_log(ptr noundef %51, i32 noundef 16, ptr noundef @.str.11)
  store i32 -22, ptr %2, align 4
  store i32 1, ptr %8, align 4
  br label %141

52:                                               ; preds = %42, %37
  %53 = load ptr, ptr %4, align 8, !tbaa !26
  %54 = getelementptr inbounds nuw %struct.ASTMuxContext, ptr %53, i32 0, i32 3
  %55 = load i64, ptr %54, align 8, !tbaa !47
  %56 = icmp sgt i64 %55, 0
  br i1 %56, label %57, label %80

57:                                               ; preds = %52
  %58 = load ptr, ptr %4, align 8, !tbaa !26
  %59 = getelementptr inbounds nuw %struct.ASTMuxContext, ptr %58, i32 0, i32 3
  %60 = load i64, ptr %59, align 8, !tbaa !47
  %61 = load ptr, ptr %6, align 8, !tbaa !40
  %62 = getelementptr inbounds nuw %struct.AVCodecParameters, ptr %61, i32 0, i32 25
  %63 = load i32, ptr %62, align 8, !tbaa !48
  %64 = sext i32 %63 to i64
  %65 = call i64 @av_rescale_rnd(i64 noundef %60, i64 noundef %64, i64 noundef 1000, i32 noundef 2) #6
  %66 = load ptr, ptr %4, align 8, !tbaa !26
  %67 = getelementptr inbounds nuw %struct.ASTMuxContext, ptr %66, i32 0, i32 3
  store i64 %65, ptr %67, align 8, !tbaa !47
  %68 = load ptr, ptr %4, align 8, !tbaa !26
  %69 = getelementptr inbounds nuw %struct.ASTMuxContext, ptr %68, i32 0, i32 3
  %70 = load i64, ptr %69, align 8, !tbaa !47
  %71 = icmp slt i64 %70, 0
  br i1 %71, label %77, label %72

72:                                               ; preds = %57
  %73 = load ptr, ptr %4, align 8, !tbaa !26
  %74 = getelementptr inbounds nuw %struct.ASTMuxContext, ptr %73, i32 0, i32 3
  %75 = load i64, ptr %74, align 8, !tbaa !47
  %76 = icmp sgt i64 %75, 4294967295
  br i1 %76, label %77, label %79

77:                                               ; preds = %72, %57
  %78 = load ptr, ptr %3, align 8, !tbaa !4
  call void (ptr, i32, ptr, ...) @av_log(ptr noundef %78, i32 noundef 16, ptr noundef @.str.12)
  store i32 -22, ptr %2, align 4
  store i32 1, ptr %8, align 4
  br label %141

79:                                               ; preds = %72
  br label %80

80:                                               ; preds = %79, %52
  %81 = load ptr, ptr %4, align 8, !tbaa !26
  %82 = getelementptr inbounds nuw %struct.ASTMuxContext, ptr %81, i32 0, i32 4
  %83 = load i64, ptr %82, align 8, !tbaa !45
  %84 = icmp sgt i64 %83, 0
  br i1 %84, label %85, label %108

85:                                               ; preds = %80
  %86 = load ptr, ptr %4, align 8, !tbaa !26
  %87 = getelementptr inbounds nuw %struct.ASTMuxContext, ptr %86, i32 0, i32 4
  %88 = load i64, ptr %87, align 8, !tbaa !45
  %89 = load ptr, ptr %6, align 8, !tbaa !40
  %90 = getelementptr inbounds nuw %struct.AVCodecParameters, ptr %89, i32 0, i32 25
  %91 = load i32, ptr %90, align 8, !tbaa !48
  %92 = sext i32 %91 to i64
  %93 = call i64 @av_rescale_rnd(i64 noundef %88, i64 noundef %92, i64 noundef 1000, i32 noundef 2) #6
  %94 = load ptr, ptr %4, align 8, !tbaa !26
  %95 = getelementptr inbounds nuw %struct.ASTMuxContext, ptr %94, i32 0, i32 4
  store i64 %93, ptr %95, align 8, !tbaa !45
  %96 = load ptr, ptr %4, align 8, !tbaa !26
  %97 = getelementptr inbounds nuw %struct.ASTMuxContext, ptr %96, i32 0, i32 4
  %98 = load i64, ptr %97, align 8, !tbaa !45
  %99 = icmp slt i64 %98, 0
  br i1 %99, label %105, label %100

100:                                              ; preds = %85
  %101 = load ptr, ptr %4, align 8, !tbaa !26
  %102 = getelementptr inbounds nuw %struct.ASTMuxContext, ptr %101, i32 0, i32 4
  %103 = load i64, ptr %102, align 8, !tbaa !45
  %104 = icmp sgt i64 %103, 4294967295
  br i1 %104, label %105, label %107

105:                                              ; preds = %100, %85
  %106 = load ptr, ptr %3, align 8, !tbaa !4
  call void (ptr, i32, ptr, ...) @av_log(ptr noundef %106, i32 noundef 16, ptr noundef @.str.13)
  store i32 -22, ptr %2, align 4
  store i32 1, ptr %8, align 4
  br label %141

107:                                              ; preds = %100
  br label %108

108:                                              ; preds = %107, %80
  %109 = load ptr, ptr %5, align 8, !tbaa !29
  call void @ffio_wfourcc(ptr noundef %109, ptr noundef @.str.14)
  %110 = load ptr, ptr %5, align 8, !tbaa !29
  %111 = call i64 @avio_tell(ptr noundef %110)
  %112 = load ptr, ptr %4, align 8, !tbaa !26
  %113 = getelementptr inbounds nuw %struct.ASTMuxContext, ptr %112, i32 0, i32 1
  store i64 %111, ptr %113, align 8, !tbaa !49
  %114 = load ptr, ptr %5, align 8, !tbaa !29
  call void @avio_wb32(ptr noundef %114, i32 noundef 0)
  %115 = load ptr, ptr %5, align 8, !tbaa !29
  %116 = load i32, ptr %7, align 4, !tbaa !44
  call void @avio_wb16(ptr noundef %115, i32 noundef %116)
  %117 = load ptr, ptr %5, align 8, !tbaa !29
  call void @avio_wb16(ptr noundef %117, i32 noundef 16)
  %118 = load ptr, ptr %5, align 8, !tbaa !29
  %119 = load ptr, ptr %6, align 8, !tbaa !40
  %120 = getelementptr inbounds nuw %struct.AVCodecParameters, ptr %119, i32 0, i32 24
  %121 = getelementptr inbounds nuw %struct.AVChannelLayout, ptr %120, i32 0, i32 1
  %122 = load i32, ptr %121, align 4, !tbaa !50
  call void @avio_wb16(ptr noundef %118, i32 noundef %122)
  %123 = load ptr, ptr %5, align 8, !tbaa !29
  call void @avio_wb16(ptr noundef %123, i32 noundef 0)
  %124 = load ptr, ptr %5, align 8, !tbaa !29
  %125 = load ptr, ptr %6, align 8, !tbaa !40
  %126 = getelementptr inbounds nuw %struct.AVCodecParameters, ptr %125, i32 0, i32 25
  %127 = load i32, ptr %126, align 8, !tbaa !48
  call void @avio_wb32(ptr noundef %124, i32 noundef %127)
  %128 = load ptr, ptr %5, align 8, !tbaa !29
  %129 = call i64 @avio_tell(ptr noundef %128)
  %130 = load ptr, ptr %4, align 8, !tbaa !26
  %131 = getelementptr inbounds nuw %struct.ASTMuxContext, ptr %130, i32 0, i32 2
  store i64 %129, ptr %131, align 8, !tbaa !51
  %132 = load ptr, ptr %5, align 8, !tbaa !29
  call void @avio_wb32(ptr noundef %132, i32 noundef 0)
  %133 = load ptr, ptr %5, align 8, !tbaa !29
  call void @avio_wb32(ptr noundef %133, i32 noundef 0)
  %134 = load ptr, ptr %5, align 8, !tbaa !29
  call void @avio_wb32(ptr noundef %134, i32 noundef 0)
  %135 = load ptr, ptr %5, align 8, !tbaa !29
  call void @avio_wb32(ptr noundef %135, i32 noundef 0)
  %136 = load ptr, ptr %5, align 8, !tbaa !29
  call void @avio_wb32(ptr noundef %136, i32 noundef 0)
  %137 = load ptr, ptr %5, align 8, !tbaa !29
  call void @avio_wl32(ptr noundef %137, i32 noundef 127)
  %138 = load ptr, ptr %5, align 8, !tbaa !29
  call void @avio_wb64(ptr noundef %138, i64 noundef 0)
  %139 = load ptr, ptr %5, align 8, !tbaa !29
  call void @avio_wb64(ptr noundef %139, i64 noundef 0)
  %140 = load ptr, ptr %5, align 8, !tbaa !29
  call void @avio_wb32(ptr noundef %140, i32 noundef 0)
  store i32 0, ptr %2, align 4
  store i32 1, ptr %8, align 4
  br label %141

141:                                              ; preds = %108, %105, %77, %50, %35, %26
  call void @llvm.lifetime.end.p0(i64 4, ptr %7) #5
  call void @llvm.lifetime.end.p0(i64 8, ptr %6) #5
  call void @llvm.lifetime.end.p0(i64 8, ptr %5) #5
  call void @llvm.lifetime.end.p0(i64 8, ptr %4) #5
  %142 = load i32, ptr %2, align 4
  ret i32 %142
}