; Function Attrs: nounwind uwtable
define internal range(i32 -1163346256, 1) i32 @ast_write_header(ptr noundef %0) #0 {
  %2 = getelementptr inbounds nuw i8, ptr %0, i64 24
  %3 = load ptr, ptr %2, align 8, !tbaa !4
  %4 = getelementptr inbounds nuw i8, ptr %0, i64 32
  %5 = load ptr, ptr %4, align 8, !tbaa !24
  %6 = getelementptr inbounds nuw i8, ptr %0, i64 48
  %7 = load ptr, ptr %6, align 8, !tbaa !25
  %8 = load ptr, ptr %7, align 8, !tbaa !26
  %9 = getelementptr inbounds nuw i8, ptr %8, i64 16
  %10 = load ptr, ptr %9, align 8, !tbaa !28
  %11 = getelementptr inbounds nuw i8, ptr %10, i64 4
  %12 = load i32, ptr %11, align 4, !tbaa !35
  %13 = icmp eq i32 %12, 69663
  br i1 %13, label %14, label %15

14:                                               ; preds = %1
  tail call void (ptr, i32, ptr, ...) @av_log(ptr noundef nonnull %0, i32 noundef 16, ptr noundef nonnull @.str.9) #3
  br label %49

15:                                               ; preds = %1
  %16 = tail call i32 @ff_codec_get_tag(ptr noundef nonnull @ff_codec_ast_tags, i32 noundef %12) #3
  %.not = icmp eq i32 %16, 0
  br i1 %.not, label %17, label %18

17:                                               ; preds = %15
  tail call void (ptr, i32, ptr, ...) @av_log(ptr noundef nonnull %0, i32 noundef 16, ptr noundef nonnull @.str.10) #3
  br label %49

18:                                               ; preds = %15
  %19 = getelementptr inbounds nuw i8, ptr %3, i64 32
  %20 = load i64, ptr %19, align 8, !tbaa !38
  %21 = icmp slt i64 %20, 1
  %22 = getelementptr inbounds nuw i8, ptr %3, i64 24
  %23 = load i64, ptr %22, align 8, !tbaa !40
  %.not56 = icmp slt i64 %23, %20
  %or.cond59 = select i1 %21, i1 true, i1 %.not56
  br i1 %or.cond59, label %._crit_edge, label %24

24:                                               ; preds = %18
  tail call void (ptr, i32, ptr, ...) @av_log(ptr noundef nonnull %0, i32 noundef 16, ptr noundef nonnull @.str.11) #3
  br label %49

._crit_edge:                                      ; preds = %18
  %25 = icmp sgt i64 %23, 0
  br i1 %25, label %26, label %33

26:                                               ; preds = %._crit_edge
  %27 = getelementptr inbounds nuw i8, ptr %3, i64 24
  %28 = getelementptr inbounds nuw i8, ptr %10, i64 152
  %29 = load i32, ptr %28, align 8, !tbaa !41
  %30 = sext i32 %29 to i64
  %31 = tail call i64 @av_rescale_rnd(i64 noundef %23, i64 noundef %30, i64 noundef 1000, i32 noundef 2) #4
  store i64 %31, ptr %27, align 8, !tbaa !40
  %or.cond = icmp ugt i64 %31, 4294967295
  br i1 %or.cond, label %32, label %33

32:                                               ; preds = %26
  tail call void (ptr, i32, ptr, ...) @av_log(ptr noundef nonnull %0, i32 noundef 16, ptr noundef nonnull @.str.12) #3
  br label %49

33:                                               ; preds = %26, %._crit_edge
  br i1 %21, label %40, label %34

34:                                               ; preds = %33
  %35 = getelementptr inbounds nuw i8, ptr %10, i64 152
  %36 = load i32, ptr %35, align 8, !tbaa !41
  %37 = sext i32 %36 to i64
  %38 = tail call i64 @av_rescale_rnd(i64 noundef %20, i64 noundef %37, i64 noundef 1000, i32 noundef 2) #4
  store i64 %38, ptr %19, align 8, !tbaa !38
  %or.cond57 = icmp ugt i64 %38, 4294967295
  br i1 %or.cond57, label %39, label %40

39:                                               ; preds = %34
  tail call void (ptr, i32, ptr, ...) @av_log(ptr noundef nonnull %0, i32 noundef 16, ptr noundef nonnull @.str.13) #3
  br label %49

40:                                               ; preds = %34, %33
  tail call void @avio_wl32(ptr noundef %5, i32 noundef 1297241171) #3
  %41 = tail call i64 @avio_seek(ptr noundef %5, i64 noundef 0, i32 noundef 1) #3
  %42 = getelementptr inbounds nuw i8, ptr %3, i64 8
  store i64 %41, ptr %42, align 8, !tbaa !42
  tail call void @avio_wb32(ptr noundef %5, i32 noundef 0) #3
  tail call void @avio_wb16(ptr noundef %5, i32 noundef %16) #3
  tail call void @avio_wb16(ptr noundef %5, i32 noundef 16) #3
  %43 = getelementptr inbounds nuw i8, ptr %10, i64 132
  %44 = load i32, ptr %43, align 4, !tbaa !43
  tail call void @avio_wb16(ptr noundef %5, i32 noundef %44) #3
  tail call void @avio_wb16(ptr noundef %5, i32 noundef 0) #3
  %45 = getelementptr inbounds nuw i8, ptr %10, i64 152
  %46 = load i32, ptr %45, align 8, !tbaa !41
  tail call void @avio_wb32(ptr noundef %5, i32 noundef %46) #3
  %47 = tail call i64 @avio_seek(ptr noundef %5, i64 noundef 0, i32 noundef 1) #3
  %48 = getelementptr inbounds nuw i8, ptr %3, i64 16
  store i64 %47, ptr %48, align 8, !tbaa !44
  tail call void @avio_wb32(ptr noundef %5, i32 noundef 0) #3
  tail call void @avio_wb32(ptr noundef %5, i32 noundef 0) #3
  tail call void @avio_wb32(ptr noundef %5, i32 noundef 0) #3
  tail call void @avio_wb32(ptr noundef %5, i32 noundef 0) #3
  tail call void @avio_wb32(ptr noundef %5, i32 noundef 0) #3
  tail call void @avio_wl32(ptr noundef %5, i32 noundef 127) #3
  tail call void @avio_wb64(ptr noundef %5, i64 noundef 0) #3
  tail call void @avio_wb64(ptr noundef %5, i64 noundef 0) #3
  tail call void @avio_wb32(ptr noundef %5, i32 noundef 0) #3
  br label %49

49:                                               ; preds = %40, %39, %32, %24, %17, %14
  %.0 = phi i32 [ -1163346256, %14 ], [ -22, %24 ], [ -22, %32 ], [ -22, %39 ], [ 0, %40 ], [ -22, %17 ]
  ret i32 %.0
}